; Function Attrs: mustprogress nounwind uwtable
define hidden void @_ZN19OpenColorIO_v2_5dev6CAMERA9PANASONIC11RegisterAllERNS_28BuiltinTransformRegistryImplE(ptr noundef nonnull align 8 dereferenceable(32) %0) local_unnamed_addr #5 personality ptr @__gxx_personality_v0 {
  %2 = alloca %"class.std::function", align 8
  %3 = getelementptr inbounds nuw i8, ptr %2, i64 16
  %4 = getelementptr inbounds nuw i8, ptr %2, i64 24
  call void @llvm.memset.p0.i64(ptr noundef nonnull align 8 dereferenceable(32) %2, i8 0, i64 16, i1 false)
  store ptr @"_ZNSt17_Function_handlerIFvRN19OpenColorIO_v2_5dev10OpRcPtrVecEEZNS0_6CAMERA9PANASONIC11RegisterAllERNS0_28BuiltinTransformRegistryImplEE3$_0E9_M_invokeERKSt9_Any_dataS2_", ptr %4, align 8, !tbaa !10
  store ptr @"_ZNSt17_Function_handlerIFvRN19OpenColorIO_v2_5dev10OpRcPtrVecEEZNS0_6CAMERA9PANASONIC11RegisterAllERNS0_28BuiltinTransformRegistryImplEE3$_0E10_M_managerERSt9_Any_dataRKSA_St18_Manager_operation", ptr %3, align 8, !tbaa !13
  invoke void @_ZN19OpenColorIO_v2_5dev28BuiltinTransformRegistryImpl10addBuiltinEPKcS2_St8functionIFvRNS_10OpRcPtrVecEEE(ptr noundef nonnull align 8 dereferenceable(32) %0, ptr noundef nonnull @.str, ptr noundef nonnull @.str.8, ptr noundef nonnull %2)
          to label %5 unwind label %12

5:                                                ; preds = %1
  %6 = load ptr, ptr %3, align 8, !tbaa !13
  %.not.i = icmp eq ptr %6, null
  br i1 %.not.i, label %_ZNSt14_Function_baseD2Ev.exit, label %7

7:                                                ; preds = %5
  %8 = invoke noundef zeroext i1 %6(ptr noundef nonnull align 8 dereferenceable(32) %2, ptr noundef nonnull align 8 dereferenceable(32) %2, i32 noundef 3)
          to label %_ZNSt14_Function_baseD2Ev.exit unwind label %9

9:                                                ; preds = %7
  %10 = landingpad { ptr, i32 }
          catch ptr null
  %11 = extractvalue { ptr, i32 } %10, 0
  call void @__clang_call_terminate(ptr %11) #16
  unreachable

_ZNSt14_Function_baseD2Ev.exit:                   ; preds = %5, %7
  ret void

12:                                               ; preds = %1
  %13 = landingpad { ptr, i32 }
          catch ptr null
  %14 = extractvalue { ptr, i32 } %13, 0
  call void @__clang_call_terminate(ptr %14) #16
  unreachable
}